target datalayout = "e-m:e-p270:32:32-p271:32:32-p272:64:64-i64:64-i128:128-f80:128-n8:16:32:64-S128"
target triple = "x86_64-unknown-linux-gnu"

%struct.redisServer = type { i32, i64, ptr, ptr, ptr, i32, i32, i32, i32, i32, ptr, ptr, ptr, ptr, ptr, ptr, i32, i32, i64, i32, i32, i32, i32, ptr, i32, i32, [41 x i8], i32, i64, i32, i32, i32, ptr, ptr, i32, i32, i64, ptr, ptr, ptr, ptr, [2 x i32], i32, i32, i32, i32, i32, [16 x ptr], i32, ptr, ptr, i32, [8 x %struct.connListener], i32, %struct.connListener, ptr, ptr, ptr, ptr, ptr, ptr, ptr, ptr, ptr, ptr, i32, ptr, i32, ptr, [3 x %struct.pause_event], [256 x i8], ptr, i64, i32, i32, i32, i32, i64, i32, i32, i32, i32, i32, i64, i64, i64, i64, i64, i64, i64, i64, i64, double, i64, i64, i64, i64, i64, i64, i64, i64, i64, i64, i64, i64, i64, i64, i64, i64, i64, i64, i64, i64, double, i64, i64, i64, i64, i64, ptr, i64, i64, i64, %struct.malloc_stats, i64, i64, i64, i64, i64, i64, i64, i64, i64, i64, i64, i64, double, [4 x i64], i64, i64, i64, i64, i64, i64, i64, i64, i64, i64, [7 x %struct.anon], i64, i64, i64, i64, i64, i64, [4 x %struct.durationStats], i32, i32, i32, i32, i32, i32, i32, i32, i32, i32, i64, i32, i32, i32, i32, i64, i64, i32, i32, i32, i32, i32, ptr, [3 x %struct.clientBufferLimitsConfig], i32, i32, ptr, i32, i32, i32, i32, ptr, ptr, i32, i32, i64, i64, i64, i64, i64, i32, i32, ptr, i32, i32, i64, i64, i64, i64, i64, i32, i32, i64, i32, i32, i32, i32, i32, i32, i32, i32, ptr, i32, i64, i64, i64, i64, ptr, i32, ptr, i32, i32, i32, i64, i64, i64, i64, i32, i32, i32, i32, i32, i32, ptr, i32, i32, ptr, i32, i32, i32, [2 x i32], i32, %struct.redisOpArray, i32, ptr, i32, ptr, i32, i32, i32, i32, i32, i32, i32, [41 x i8], [41 x i8], i64, i64, i64, i64, i32, i32, ptr, i64, i64, i64, i32, i32, i32, i32, i32, i32, i32, i64, ptr, ptr, ptr, ptr, i32, i32, ptr, ptr, i32, i32, i64, i64, i64, ptr, i32, ptr, i64, i32, i32, i32, i64, i32, i32, i32, i32, ptr, i32, i32, [41 x i8], i64, i32, ptr, i32, i32, i64, i64, i32, i32, i32, i32, i32, i64, [3 x i32], i32, i32, i32, [9 x i32], ptr, ptr, i32, i64, ptr, ptr, i32, i32, i32, i32, i64, i64, i64, i64, i64, i64, i64, i64, i64, i64, i32, i32, i64, i64, i32, i64, i64, i64, i64, i64, ptr, ptr, i32, ptr, i32, i32, i32, i64, i64, ptr, ptr, i32, i32, i32, i32, i32, ptr, ptr, ptr, i32, i32, i32, i32, i32, i32, i32, i64, i32, i64, i32, i32, i32, i32, i32, i32, i32, i64, ptr, ptr, i64, ptr, i32, %struct.aclInfo, i32, i64, i32, i32, i32, %struct.redisTLSContextConfig, ptr, ptr, ptr, ptr, ptr, i64, i32, ptr, i32, i32, i32, i64, i32, ptr }
%struct.connListener = type { [16 x i32], i32, ptr, i32, i32, ptr, ptr }
%struct.pause_event = type { i32, i64 }
%struct.malloc_stats = type { i64, i64, i64, i64, i64 }
%struct.anon = type { i64, i64, [16 x i64], i32 }
%struct.durationStats = type { i64, i64, i64 }
%struct.clientBufferLimitsConfig = type { i64, i64, i64 }
%struct.redisOpArray = type { ptr, i32, i32 }
%struct.aclInfo = type { i64, i64, i64, i64 }
%struct.redisTLSContextConfig = type { ptr, ptr, ptr, ptr, ptr, ptr, ptr, ptr, ptr, ptr, ptr, ptr, i32, i32, i32, i32 }
%struct.client = type { i64, i64, ptr, i32, ptr, ptr, ptr, ptr, ptr, i64, i64, i32, ptr, i32, i32, ptr, i64, ptr, ptr, ptr, ptr, i32, i32, i64, ptr, i64, ptr, i64, i64, i64, i32, ptr, i64, i64, i32, i32, i32, i32, i64, i64, ptr, i64, i64, i64, i64, i64, i64, i64, i64, [41 x i8], i32, ptr, i32, i32, %struct.multiState, %struct.blockingState, i64, ptr, ptr, ptr, ptr, ptr, ptr, ptr, ptr, ptr, ptr, ptr, ptr, ptr, ptr, i64, ptr, i64, i32, ptr, ptr, ptr, i64, %struct.listNode, i64, i64, i32, i64, ptr }
%struct.multiState = type { ptr, i32, i32, i32, i64, i32 }
%struct.blockingState = type { i32, i64, i32, ptr, i32, i32, i64, ptr, ptr }
%struct.listNode = type { ptr, ptr, ptr }

@server = external global %struct.redisServer, align 8
@.str.3 = private unnamed_addr constant [14 x i8] c"replication.c\00", align 1
@.str.194 = private unnamed_addr constant [29 x i8] c"Reconnecting to MASTER %s:%d\00", align 1
@.str.216 = private unnamed_addr constant [54 x i8] c"server.master != NULL && server.cached_master == NULL\00", align 1
@.str.217 = private unnamed_addr constant [39 x i8] c"Caching the disconnected master state.\00", align 1

; Function Attrs: nounwind uwtable
define dso_local void @replicationHandleMasterDisconnection() #0 {
entry:
  %0 = load i32, ptr getelementptr inbounds (%struct.redisServer, ptr @server, i32 0, i32 289), align 4
  %cmp = icmp eq i32 %0, 12
  br i1 %cmp, label %if.then, label %if.end

if.then:                                          ; preds = %entry
  call void @moduleFireServerEvent(i64 noundef 7, i32 noundef 1, ptr noundef null)
  br label %if.end

if.end:                                           ; preds = %if.then, %entry
  store ptr null, ptr getelementptr inbounds (%struct.redisServer, ptr @server, i32 0, i32 286), align 8
  store i32 1, ptr getelementptr inbounds (%struct.redisServer, ptr @server, i32 0, i32 289), align 4
  %atomic-load = load atomic i64, ptr getelementptr inbounds (%struct.redisServer, ptr @server, i32 0, i32 349) seq_cst, align 8
  store i64 %atomic-load, ptr getelementptr inbounds (%struct.redisServer, ptr @server, i32 0, i32 300), align 8
  %1 = load ptr, ptr getelementptr inbounds (%struct.redisServer, ptr @server, i32 0, i32 283), align 8
  %tobool = icmp ne ptr %1, null
  br i1 %tobool, label %if.then1, label %if.end5

if.then1:                                         ; preds = %if.end
  br label %do.body

do.body:                                          ; preds = %if.then1
  %2 = load i32, ptr getelementptr inbounds (%struct.redisServer, ptr @server, i32 0, i32 156), align 8
  %cmp2 = icmp slt i32 2, %2
  br i1 %cmp2, label %if.then3, label %if.end4

if.then3:                                         ; preds = %do.body
  br label %do.end

if.end4:                                          ; preds = %do.body
  %3 = load ptr, ptr getelementptr inbounds (%struct.redisServer, ptr @server, i32 0, i32 283), align 8
  %4 = load i32, ptr getelementptr inbounds (%struct.redisServer, ptr @server, i32 0, i32 284), align 8
  call void (i32, ptr, ...) @_serverLog(i32 noundef 2, ptr noundef @.str.194, ptr noundef %3, i32 noundef %4)
  br label %do.end

do.end:                                           ; preds = %if.end4, %if.then3
  %call = call i32 @connectWithMaster()
  br label %if.end5

if.end5:                                          ; preds = %do.end, %if.end
  ret void
}

; Function Attrs: nounwind uwtable
define dso_local void @replicationCacheMaster(ptr noundef %c) #0 {
entry:
  %c.addr = alloca ptr, align 8
  store ptr %c, ptr %c.addr, align 8
  %0 = load ptr, ptr getelementptr inbounds (%struct.redisServer, ptr @server, i32 0, i32 286), align 8
  %cmp = icmp ne ptr %0, null
  br i1 %cmp, label %land.rhs, label %land.end

land.rhs:                                         ; preds = %entry
  %1 = load ptr, ptr getelementptr inbounds (%struct.redisServer, ptr @server, i32 0, i32 287), align 8
  %cmp1 = icmp eq ptr %1, null
  br label %land.end

land.end:                                         ; preds = %land.rhs, %entry
  %2 = phi i1 [ false, %entry ], [ %cmp1, %land.rhs ]
  %lnot = xor i1 %2, true
  %lnot2 = xor i1 %lnot, true
  %lnot.ext = zext i1 %lnot2 to i32
  %conv = sext i32 %lnot.ext to i64
  %tobool = icmp ne i64 %conv, 0
  br i1 %tobool, label %cond.true, label %cond.false

cond.true:                                        ; preds = %land.end
  br label %cond.end

cond.false:                                       ; preds = %land.end
  call void @_serverAssert(ptr noundef @.str.216, ptr noundef @.str.3, i32 noundef 3305)
  call void @abort() #13
  unreachable

3:                                                ; No predecessors!
  br label %cond.end

cond.end:                                         ; preds = %3, %cond.true
  br label %do.body

do.body:                                          ; preds = %cond.end
  %4 = load i32, ptr getelementptr inbounds (%struct.redisServer, ptr @server, i32 0, i32 156), align 8
  %cmp3 = icmp slt i32 2, %4
  br i1 %cmp3, label %if.then, label %if.end

if.then:                                          ; preds = %do.body
  br label %do.end

if.end:                                           ; preds = %do.body
  call void (i32, ptr, ...) @_serverLog(i32 noundef 2, ptr noundef @.str.217)
  br label %do.end

do.end:                                           ; preds = %if.end, %if.then
  %5 = load ptr, ptr %c.addr, align 8
  call void @unlinkClient(ptr noundef %5)
  %6 = load ptr, ptr getelementptr inbounds (%struct.redisServer, ptr @server, i32 0, i32 286), align 8
  %querybuf = getelementptr inbounds %struct.client, ptr %6, i32 0, i32 8
  %7 = load ptr, ptr %querybuf, align 8
  call void @sdsclear(ptr noundef %7)
  %8 = load ptr, ptr getelementptr inbounds (%struct.redisServer, ptr @server, i32 0, i32 286), align 8
  %qb_pos = getelementptr inbounds %struct.client, ptr %8, i32 0, i32 9
  store i64 0, ptr %qb_pos, align 8
  %9 = load ptr, ptr getelementptr inbounds (%struct.redisServer, ptr @server, i32 0, i32 286), align 8
  %repl_applied = getelementptr inbounds %struct.client, ptr %9, i32 0, i32 43
  store i64 0, ptr %repl_applied, align 8
  %10 = load ptr, ptr getelementptr inbounds (%struct.redisServer, ptr @server, i32 0, i32 286), align 8
  %reploff = getelementptr inbounds %struct.client, ptr %10, i32 0, i32 42
  %11 = load i64, ptr %reploff, align 8
  %12 = load ptr, ptr getelementptr inbounds (%struct.redisServer, ptr @server, i32 0, i32 286), align 8
  %read_reploff = getelementptr inbounds %struct.client, ptr %12, i32 0, i32 41
  store i64 %11, ptr %read_reploff, align 8
  %13 = load ptr, ptr %c.addr, align 8
  %flags = getelementptr inbounds %struct.client, ptr %13, i32 0, i32 1
  %14 = load i64, ptr %flags, align 8
  %and = and i64 %14, 8
  %tobool5 = icmp ne i64 %and, 0
  br i1 %tobool5, label %if.then6, label %if.end7

if.then6:                                         ; preds = %do.end
  %15 = load ptr, ptr %c.addr, align 8
  call void @discardTransaction(ptr noundef %15)
  br label %if.end7

if.end7:                                          ; preds = %if.then6, %do.end
  %16 = load ptr, ptr %c.addr, align 8
  %reply = getelementptr inbounds %struct.client, ptr %16, i32 0, i32 24
  %17 = load ptr, ptr %reply, align 8
  call void @listEmpty(ptr noundef %17)
  %18 = load ptr, ptr %c.addr, align 8
  %sentlen = getelementptr inbounds %struct.client, ptr %18, i32 0, i32 27
  store i64 0, ptr %sentlen, align 8
  %19 = load ptr, ptr %c.addr, align 8
  %reply_bytes = getelementptr inbounds %struct.client, ptr %19, i32 0, i32 25
  store i64 0, ptr %reply_bytes, align 8
  %20 = load ptr, ptr %c.addr, align 8
  %bufpos = getelementptr inbounds %struct.client, ptr %20, i32 0, i32 82
  store i32 0, ptr %bufpos, align 8
  %21 = load ptr, ptr %c.addr, align 8
  call void @resetClient(ptr noundef %21)
  %22 = load ptr, ptr getelementptr inbounds (%struct.redisServer, ptr @server, i32 0, i32 286), align 8
  store ptr %22, ptr getelementptr inbounds (%struct.redisServer, ptr @server, i32 0, i32 287), align 8
  %23 = load ptr, ptr %c.addr, align 8
  %peerid = getelementptr inbounds %struct.client, ptr %23, i32 0, i32 61
  %24 = load ptr, ptr %peerid, align 8
  %tobool8 = icmp ne ptr %24, null
  br i1 %tobool8, label %if.then9, label %if.end12

if.then9:                                         ; preds = %if.end7
  %25 = load ptr, ptr %c.addr, align 8
  %peerid10 = getelementptr inbounds %struct.client, ptr %25, i32 0, i32 61
  %26 = load ptr, ptr %peerid10, align 8
  call void @sdsfree(ptr noundef %26)
  %27 = load ptr, ptr %c.addr, align 8
  %peerid11 = getelementptr inbounds %struct.client, ptr %27, i32 0, i32 61
  store ptr null, ptr %peerid11, align 8
  br label %if.end12

if.end12:                                         ; preds = %if.then9, %if.end7
  %28 = load ptr, ptr %c.addr, align 8
  %sockname = getelementptr inbounds %struct.client, ptr %28, i32 0, i32 62
  %29 = load ptr, ptr %sockname, align 8
  %tobool13 = icmp ne ptr %29, null
  br i1 %tobool13, label %if.then14, label %if.end17

if.then14:                                        ; preds = %if.end12
  %30 = load ptr, ptr %c.addr, align 8
  %sockname15 = getelementptr inbounds %struct.client, ptr %30, i32 0, i32 62
  %31 = load ptr, ptr %sockname15, align 8
  call void @sdsfree(ptr noundef %31)
  %32 = load ptr, ptr %c.addr, align 8
  %sockname16 = getelementptr inbounds %struct.client, ptr %32, i32 0, i32 62
  store ptr null, ptr %sockname16, align 8
  br label %if.end17

if.end17:                                         ; preds = %if.then14, %if.end12
  call void @replicationHandleMasterDisconnection()
  ret void
}