; Function Attrs: nounwind uwtable
define dso_local void @replicationCacheMaster(ptr noundef %c) local_unnamed_addr #0 {
entry:
  %0 = load ptr, ptr getelementptr inbounds (%struct.redisServer, ptr @server, i64 0, i32 286), align 8
  %cmp = icmp ne ptr %0, null
  %1 = load ptr, ptr getelementptr inbounds (%struct.redisServer, ptr @server, i64 0, i32 287), align 8
  %cmp1 = icmp eq ptr %1, null
  %2 = select i1 %cmp, i1 %cmp1, i1 false
  br i1 %2, label %do.body, label %cond.false

cond.false:                                       ; preds = %entry
  tail call void @_serverAssert(ptr noundef nonnull @.str.216, ptr noundef nonnull @.str.3, i32 noundef 3305) #21
  tail call void @abort() #24
  unreachable

do.body:                                          ; preds = %entry
  %3 = load i32, ptr getelementptr inbounds (%struct.redisServer, ptr @server, i64 0, i32 156), align 8
  %cmp3 = icmp sgt i32 %3, 2
  br i1 %cmp3, label %do.end, label %if.end

if.end:                                           ; preds = %do.body
  tail call void (i32, ptr, ...) @_serverLog(i32 noundef 2, ptr noundef nonnull @.str.217) #21
  br label %do.end

do.end:                                           ; preds = %do.body, %if.end
  tail call void @unlinkClient(ptr noundef %c) #21
  %4 = load ptr, ptr getelementptr inbounds (%struct.redisServer, ptr @server, i64 0, i32 286), align 8
  %querybuf = getelementptr inbounds i8, ptr %4, i64 64
  %5 = load ptr, ptr %querybuf, align 8
  tail call void @sdsclear(ptr noundef %5) #21
  %6 = load ptr, ptr getelementptr inbounds (%struct.redisServer, ptr @server, i64 0, i32 286), align 8
  %qb_pos = getelementptr inbounds i8, ptr %6, i64 72
  store i64 0, ptr %qb_pos, align 8
  %7 = load ptr, ptr getelementptr inbounds (%struct.redisServer, ptr @server, i64 0, i32 286), align 8
  %repl_applied = getelementptr inbounds i8, ptr %7, i64 312
  store i64 0, ptr %repl_applied, align 8
  %8 = load ptr, ptr getelementptr inbounds (%struct.redisServer, ptr @server, i64 0, i32 286), align 8
  %reploff = getelementptr inbounds i8, ptr %8, i64 304
  %9 = load i64, ptr %reploff, align 8
  %read_reploff = getelementptr inbounds i8, ptr %8, i64 296
  store i64 %9, ptr %read_reploff, align 8
  %flags = getelementptr inbounds i8, ptr %c, i64 8
  %10 = load i64, ptr %flags, align 8
  %and = and i64 %10, 8
  %tobool5.not = icmp eq i64 %and, 0
  br i1 %tobool5.not, label %if.end7, label %if.then6

if.then6:                                         ; preds = %do.end
  tail call void @discardTransaction(ptr noundef nonnull %c) #21
  br label %if.end7

if.end7:                                          ; preds = %if.then6, %do.end
  %reply = getelementptr inbounds i8, ptr %c, i64 176
  %11 = load ptr, ptr %reply, align 8
  tail call void @listEmpty(ptr noundef %11) #21
  %sentlen = getelementptr inbounds i8, ptr %c, i64 200
  store i64 0, ptr %sentlen, align 8
  %reply_bytes = getelementptr inbounds i8, ptr %c, i64 184
  store i64 0, ptr %reply_bytes, align 8
  %bufpos = getelementptr inbounds i8, ptr %c, i64 752
  store i32 0, ptr %bufpos, align 8
  tail call void @resetClient(ptr noundef nonnull %c) #21
  %12 = load ptr, ptr getelementptr inbounds (%struct.redisServer, ptr @server, i64 0, i32 286), align 8
  store ptr %12, ptr getelementptr inbounds (%struct.redisServer, ptr @server, i64 0, i32 287), align 8
  %peerid = getelementptr inbounds i8, ptr %c, i64 568
  %13 = load ptr, ptr %peerid, align 8
  %tobool8.not = icmp eq ptr %13, null
  br i1 %tobool8.not, label %if.end12, label %if.then9

if.then9:                                         ; preds = %if.end7
  tail call void @sdsfree(ptr noundef nonnull %13) #21
  store ptr null, ptr %peerid, align 8
  br label %if.end12

if.end12:                                         ; preds = %if.then9, %if.end7
  %sockname = getelementptr inbounds i8, ptr %c, i64 576
  %14 = load ptr, ptr %sockname, align 8
  %tobool13.not = icmp eq ptr %14, null
  br i1 %tobool13.not, label %if.end17, label %if.then14

if.then14:                                        ; preds = %if.end12
  tail call void @sdsfree(ptr noundef nonnull %14) #21
  store ptr null, ptr %sockname, align 8
  br label %if.end17

if.end17:                                         ; preds = %if.then14, %if.end12
  %15 = load i32, ptr getelementptr inbounds (%struct.redisServer, ptr @server, i64 0, i32 289), align 4
  %cmp.i = icmp eq i32 %15, 12
  br i1 %cmp.i, label %if.then.i, label %if.end.i

if.then.i:                                        ; preds = %if.end17
  tail call void @moduleFireServerEvent(i64 noundef 7, i32 noundef 1, ptr noundef null) #21
  br label %if.end.i

if.end.i:                                         ; preds = %if.then.i, %if.end17
  store ptr null, ptr getelementptr inbounds (%struct.redisServer, ptr @server, i64 0, i32 286), align 8
  store i32 1, ptr getelementptr inbounds (%struct.redisServer, ptr @server, i64 0, i32 289), align 4
  %atomic-load.i = load atomic i64, ptr getelementptr inbounds (%struct.redisServer, ptr @server, i64 0, i32 349) seq_cst, align 8
  store i64 %atomic-load.i, ptr getelementptr inbounds (%struct.redisServer, ptr @server, i64 0, i32 300), align 8
  %16 = load ptr, ptr getelementptr inbounds (%struct.redisServer, ptr @server, i64 0, i32 283), align 8
  %tobool.not.i = icmp eq ptr %16, null
  br i1 %tobool.not.i, label %replicationHandleMasterDisconnection.exit, label %do.body.i

do.body.i:                                        ; preds = %if.end.i
  %17 = load i32, ptr getelementptr inbounds (%struct.redisServer, ptr @server, i64 0, i32 156), align 8
  %cmp2.i = icmp sgt i32 %17, 2
  br i1 %cmp2.i, label %do.end.i, label %if.end4.i

if.end4.i:                                        ; preds = %do.body.i
  %18 = load i32, ptr getelementptr inbounds (%struct.redisServer, ptr @server, i64 0, i32 284), align 8
  tail call void (i32, ptr, ...) @_serverLog(i32 noundef 2, ptr noundef nonnull @.str.194, ptr noundef nonnull %16, i32 noundef %18) #21
  br label %do.end.i

do.end.i:                                         ; preds = %if.end4.i, %do.body.i
  %call.i = tail call i32 @connectWithMaster(), !range !18
  br label %replicationHandleMasterDisconnection.exit

replicationHandleMasterDisconnection.exit:        ; preds = %if.end.i, %do.end.i
  ret void
}